target datalayout = "e-m:e-p270:32:32-p271:32:32-p272:64:64-i64:64-i128:128-f80:128-n8:16:32:64-S128"
target triple = "x86_64-pc-linux-gnu"

@.str = private unnamed_addr constant [7 x i8] c"NVIDIA\00", align 1
@.str.1 = private unnamed_addr constant [4 x i8] c"AMD\00", align 1
@.str.2 = private unnamed_addr constant [23 x i8] c"Advanced Micro Devices\00", align 1
@.str.3 = private unnamed_addr constant [6 x i8] c"Intel\00", align 1
@.str.4 = private unnamed_addr constant [6 x i8] c"Apple\00", align 1

; Function Attrs: mustprogress nounwind uwtable
define noundef i32 @_Z15getDeviceVendorPKc(ptr noundef %0) #1 {
  %2 = alloca i32, align 4
  %3 = alloca ptr, align 8
  store ptr %0, ptr %3, align 8, !tbaa !9
  %4 = load ptr, ptr %3, align 8, !tbaa !9
  %5 = icmp ne ptr %4, null
  br i1 %5, label %6, label %34

6:                                                ; preds = %1
  %7 = load ptr, ptr %3, align 8, !tbaa !9
  %8 = call noundef ptr @strstr(ptr noundef %7, ptr noundef @.str) #19
  %9 = icmp ne ptr %8, null
  br i1 %9, label %10, label %11

10:                                               ; preds = %6
  store i32 1, ptr %2, align 4
  br label %35

11:                                               ; preds = %6
  %12 = load ptr, ptr %3, align 8, !tbaa !9
  %13 = call noundef ptr @strstr(ptr noundef %12, ptr noundef @.str.1) #19
  %14 = icmp ne ptr %13, null
  br i1 %14, label %19, label %15

15:                                               ; preds = %11
  %16 = load ptr, ptr %3, align 8, !tbaa !9
  %17 = call noundef ptr @strstr(ptr noundef %16, ptr noundef @.str.2) #19
  %18 = icmp ne ptr %17, null
  br i1 %18, label %19, label %20

19:                                               ; preds = %15, %11
  store i32 2, ptr %2, align 4
  br label %35

20:                                               ; preds = %15
  %21 = load ptr, ptr %3, align 8, !tbaa !9
  %22 = call noundef ptr @strstr(ptr noundef %21, ptr noundef @.str.3) #19
  %23 = icmp ne ptr %22, null
  br i1 %23, label %24, label %25

24:                                               ; preds = %20
  store i32 3, ptr %2, align 4
  br label %35

25:                                               ; preds = %20
  %26 = load ptr, ptr %3, align 8, !tbaa !9
  %27 = call noundef ptr @strstr(ptr noundef %26, ptr noundef @.str.4) #19
  %28 = icmp ne ptr %27, null
  br i1 %28, label %29, label %30

29:                                               ; preds = %25
  store i32 4, ptr %2, align 4
  br label %35

30:                                               ; preds = %25
  br label %31

31:                                               ; preds = %30
  br label %32

32:                                               ; preds = %31
  br label %33

33:                                               ; preds = %32
  br label %34

34:                                               ; preds = %33, %1
  store i32 0, ptr %2, align 4
  br label %35

35:                                               ; preds = %34, %29, %24, %19, %10
  %36 = load i32, ptr %2, align 4
  ret i32 %36
}