; Function Attrs: mustprogress nofree nounwind willreturn memory(argmem: read) uwtable
define noundef range(i32 0, 5) i32 @_Z15getDeviceVendorPKc(ptr noundef readonly %0) local_unnamed_addr #1 {
  %.not = icmp eq ptr %0, null
  br i1 %.not, label %12, label %2

2:                                                ; preds = %1
  %3 = tail call noundef ptr @strstr(ptr noundef nonnull dereferenceable(1) %0, ptr noundef nonnull dereferenceable(1) @.str) #23
  %.not7 = icmp eq ptr %3, null
  br i1 %.not7, label %4, label %13

4:                                                ; preds = %2
  %5 = tail call noundef ptr @strstr(ptr noundef nonnull dereferenceable(1) %0, ptr noundef nonnull dereferenceable(1) @.str.1) #23
  %.not8 = icmp eq ptr %5, null
  br i1 %.not8, label %6, label %13

6:                                                ; preds = %4
  %7 = tail call noundef ptr @strstr(ptr noundef nonnull dereferenceable(1) %0, ptr noundef nonnull dereferenceable(1) @.str.2) #23
  %.not9 = icmp eq ptr %7, null
  br i1 %.not9, label %8, label %13

8:                                                ; preds = %6
  %9 = tail call noundef ptr @strstr(ptr noundef nonnull dereferenceable(1) %0, ptr noundef nonnull dereferenceable(1) @.str.3) #23
  %.not10 = icmp eq ptr %9, null
  br i1 %.not10, label %10, label %13

10:                                               ; preds = %8
  %11 = tail call noundef ptr @strstr(ptr noundef nonnull dereferenceable(1) %0, ptr noundef nonnull dereferenceable(1) @.str.4) #23
  %.not11 = icmp eq ptr %11, null
  br i1 %.not11, label %12, label %13

12:                                               ; preds = %10, %1
  br label %13

13:                                               ; preds = %10, %8, %4, %6, %2, %12
  %.0 = phi i32 [ 0, %12 ], [ 1, %2 ], [ 2, %6 ], [ 2, %4 ], [ 3, %8 ], [ 4, %10 ]
  ret i32 %.0
}